target datalayout = "e-m:e-p270:32:32-p271:32:32-p272:64:64-i64:64-i128:128-f80:128-n8:16:32:64-S128"
target triple = "x86_64-pc-linux-gnu"

%struct.expert_field = type { i32, i32 }

@hf_ssh_hostsig_length = internal global i32 0, align 4
@hf_ssh_hostsig_type_length = internal global i32 0, align 4
@hf_ssh_hostsig_type = internal global i32 0, align 4
@hf_ssh_hostsig_data = internal global i32 0, align 4
@hf_ssh_hostsig_rsa = internal global i32 0, align 4
@hf_ssh_hostsig_dsa = internal global i32 0, align 4
@hf_ssh_mpint_length = internal global i32 0, align 4
@ei_ssh_packet_decode = internal global %struct.expert_field zeroinitializer, align 4
@.str.419 = private unnamed_addr constant [14 x i8] c"%s (type: %s)\00", align 1
@.str.420 = private unnamed_addr constant [8 x i8] c"ssh-rsa\00", align 1
@.str.421 = private unnamed_addr constant [8 x i8] c"ssh-dss\00", align 1
@.str.494 = private unnamed_addr constant [48 x i8] c"Decoded %d bytes, but packet length is %d bytes\00", align 1

; Function Attrs: nounwind uwtable
define internal i32 @ssh_tree_add_mpint(ptr noundef %0, i32 noundef %1, ptr noundef %2, i32 noundef %3) #0 {
  %5 = alloca ptr, align 8
  %6 = alloca i32, align 4
  %7 = alloca ptr, align 8
  %8 = alloca i32, align 4
  %9 = alloca i32, align 4
  store ptr %0, ptr %5, align 8
  store i32 %1, ptr %6, align 4
  store ptr %2, ptr %7, align 8
  store i32 %3, ptr %8, align 4
  %10 = load ptr, ptr %5, align 8
  %11 = load i32, ptr %6, align 4
  %12 = call i32 @tvb_get_ntohl(ptr noundef %10, i32 noundef %11)
  store i32 %12, ptr %9, align 4
  %13 = load ptr, ptr %7, align 8
  %14 = load i32, ptr @hf_ssh_mpint_length, align 4
  %15 = load ptr, ptr %5, align 8
  %16 = load i32, ptr %6, align 4
  %17 = load i32, ptr %9, align 4
  %18 = call ptr @proto_tree_add_uint(ptr noundef %13, i32 noundef %14, ptr noundef %15, i32 noundef %16, i32 noundef 4, i32 noundef %17)
  %19 = load i32, ptr %6, align 4
  %20 = add i32 %19, 4
  store i32 %20, ptr %6, align 4
  %21 = load ptr, ptr %7, align 8
  %22 = load i32, ptr %8, align 4
  %23 = load ptr, ptr %5, align 8
  %24 = load i32, ptr %6, align 4
  %25 = load i32, ptr %9, align 4
  %26 = call ptr @proto_tree_add_item(ptr noundef %21, i32 noundef %22, ptr noundef %23, i32 noundef %24, i32 noundef %25, i32 noundef 0)
  %27 = load i32, ptr %9, align 4
  %28 = add i32 4, %27
  ret i32 %28
}

; Function Attrs: nounwind uwtable
define internal i32 @ssh_tree_add_hostsignature(ptr noundef %0, ptr noundef %1, i32 noundef %2, ptr noundef %3, ptr noundef %4, i32 noundef %5, ptr noundef %6) #0 {
  %8 = alloca ptr, align 8
  %9 = alloca ptr, align 8
  %10 = alloca i32, align 4
  %11 = alloca ptr, align 8
  %12 = alloca ptr, align 8
  %13 = alloca i32, align 4
  %14 = alloca ptr, align 8
  %15 = alloca ptr, align 8
  %16 = alloca ptr, align 8
  %17 = alloca i32, align 4
  %18 = alloca i32, align 4
  %19 = alloca i32, align 4
  %20 = alloca i32, align 4
  %21 = alloca i32, align 4
  %22 = alloca ptr, align 8
  %23 = alloca ptr, align 8
  store ptr %0, ptr %8, align 8
  store ptr %1, ptr %9, align 8
  store i32 %2, ptr %10, align 4
  store ptr %3, ptr %11, align 8
  store ptr %4, ptr %12, align 8
  store i32 %5, ptr %13, align 4
  store ptr %6, ptr %14, align 8
  store ptr null, ptr %15, align 8
  store ptr null, ptr %16, align 8
  %24 = load i32, ptr %10, align 4
  store i32 %24, ptr %18, align 4
  %25 = load i32, ptr %10, align 4
  store i32 %25, ptr %17, align 4
  %26 = load ptr, ptr %8, align 8
  %27 = load i32, ptr %10, align 4
  %28 = call i32 @tvb_get_ntohl(ptr noundef %26, i32 noundef %27)
  store i32 %28, ptr %20, align 4
  %29 = load i32, ptr %10, align 4
  %30 = add i32 %29, 4
  store i32 %30, ptr %10, align 4
  %31 = load ptr, ptr %8, align 8
  %32 = load i32, ptr %10, align 4
  %33 = call i32 @tvb_get_ntohl(ptr noundef %31, i32 noundef %32)
  store i32 %33, ptr %21, align 4
  %34 = load i32, ptr %10, align 4
  %35 = add i32 %34, 4
  store i32 %35, ptr %10, align 4
  %36 = call ptr @wmem_packet_scope()
  %37 = load ptr, ptr %8, align 8
  %38 = load i32, ptr %10, align 4
  %39 = load i32, ptr %21, align 4
  %40 = call ptr @tvb_get_string_enc(ptr noundef %36, ptr noundef %37, i32 noundef %38, i32 noundef %39, i32 noundef 0)
  store ptr %40, ptr %22, align 8
  %41 = call ptr @wmem_packet_scope()
  %42 = load ptr, ptr %12, align 8
  %43 = load ptr, ptr %22, align 8
  %44 = call noalias ptr (ptr, ptr, ...) @wmem_strdup_printf(ptr noundef %41, ptr noundef @.str.419, ptr noundef %42, ptr noundef %43)
  store ptr %44, ptr %23, align 8
  %45 = load ptr, ptr %11, align 8
  %46 = load ptr, ptr %8, align 8
  %47 = load i32, ptr %17, align 4
  %48 = load i32, ptr %20, align 4
  %49 = add i32 %48, 4
  %50 = load i32, ptr %13, align 4
  %51 = load ptr, ptr %23, align 8
  %52 = call ptr @proto_tree_add_subtree(ptr noundef %45, ptr noundef %46, i32 noundef %47, i32 noundef %49, i32 noundef %50, ptr noundef null, ptr noundef %51)
  store ptr %52, ptr %15, align 8
  %53 = load ptr, ptr %15, align 8
  %54 = load i32, ptr @hf_ssh_hostsig_length, align 4
  %55 = load ptr, ptr %8, align 8
  %56 = load i32, ptr %17, align 4
  %57 = load i32, ptr %20, align 4
  %58 = call ptr @proto_tree_add_uint(ptr noundef %53, i32 noundef %54, ptr noundef %55, i32 noundef %56, i32 noundef 4, i32 noundef %57)
  store ptr %58, ptr %16, align 8
  %59 = load i32, ptr %17, align 4
  %60 = add i32 %59, 4
  store i32 %60, ptr %17, align 4
  %61 = load ptr, ptr %15, align 8
  %62 = load i32, ptr @hf_ssh_hostsig_type_length, align 4
  %63 = load ptr, ptr %8, align 8
  %64 = load i32, ptr %17, align 4
  %65 = load i32, ptr %21, align 4
  %66 = call ptr @proto_tree_add_uint(ptr noundef %61, i32 noundef %62, ptr noundef %63, i32 noundef %64, i32 noundef 4, i32 noundef %65)
  %67 = load ptr, ptr %15, align 8
  %68 = load i32, ptr @hf_ssh_hostsig_type, align 4
  %69 = load ptr, ptr %8, align 8
  %70 = load i32, ptr %10, align 4
  %71 = load i32, ptr %21, align 4
  %72 = load ptr, ptr %22, align 8
  %73 = call ptr @proto_tree_add_string(ptr noundef %67, i32 noundef %68, ptr noundef %69, i32 noundef %70, i32 noundef %71, ptr noundef %72)
  %74 = load i32, ptr %21, align 4
  %75 = load i32, ptr %10, align 4
  %76 = add i32 %75, %74
  store i32 %76, ptr %10, align 4
  %77 = load ptr, ptr %22, align 8
  %78 = call i32 @strcmp(ptr noundef %77, ptr noundef @.str.420) #11
  %79 = icmp eq i32 0, %78
  br i1 %79, label %80, label %88

80:                                               ; preds = %7
  %81 = load ptr, ptr %8, align 8
  %82 = load i32, ptr %10, align 4
  %83 = load ptr, ptr %15, align 8
  %84 = load i32, ptr @hf_ssh_hostsig_rsa, align 4
  %85 = call i32 @ssh_tree_add_mpint(ptr noundef %81, i32 noundef %82, ptr noundef %83, i32 noundef %84)
  %86 = load i32, ptr %10, align 4
  %87 = add i32 %86, %85
  store i32 %87, ptr %10, align 4
  br label %115

88:                                               ; preds = %7
  %89 = load ptr, ptr %22, align 8
  %90 = call i32 @strcmp(ptr noundef %89, ptr noundef @.str.421) #11
  %91 = icmp eq i32 0, %90
  br i1 %91, label %92, label %100

92:                                               ; preds = %88
  %93 = load ptr, ptr %8, align 8
  %94 = load i32, ptr %10, align 4
  %95 = load ptr, ptr %15, align 8
  %96 = load i32, ptr @hf_ssh_hostsig_dsa, align 4
  %97 = call i32 @ssh_tree_add_mpint(ptr noundef %93, i32 noundef %94, ptr noundef %95, i32 noundef %96)
  %98 = load i32, ptr %10, align 4
  %99 = add i32 %98, %97
  store i32 %99, ptr %10, align 4
  br label %114

100:                                              ; preds = %88
  %101 = load i32, ptr %20, align 4
  %102 = load i32, ptr %21, align 4
  %103 = add i32 %102, 4
  %104 = sub i32 %101, %103
  store i32 %104, ptr %19, align 4
  %105 = load ptr, ptr %15, align 8
  %106 = load i32, ptr @hf_ssh_hostsig_data, align 4
  %107 = load ptr, ptr %8, align 8
  %108 = load i32, ptr %10, align 4
  %109 = load i32, ptr %19, align 4
  %110 = call ptr @proto_tree_add_item(ptr noundef %105, i32 noundef %106, ptr noundef %107, i32 noundef %108, i32 noundef %109, i32 noundef 0)
  %111 = load i32, ptr %19, align 4
  %112 = load i32, ptr %10, align 4
  %113 = add i32 %112, %111
  store i32 %113, ptr %10, align 4
  br label %114

114:                                              ; preds = %100, %92
  br label %115

115:                                              ; preds = %114, %80
  %116 = load i32, ptr %10, align 4
  %117 = load i32, ptr %18, align 4
  %118 = sub i32 %116, %117
  %119 = load i32, ptr %20, align 4
  %120 = add i32 4, %119
  %121 = icmp ne i32 %118, %120
  br i1 %121, label %122, label %130

122:                                              ; preds = %115
  %123 = load ptr, ptr %9, align 8
  %124 = load ptr, ptr %16, align 8
  %125 = load i32, ptr %10, align 4
  %126 = load i32, ptr %18, align 4
  %127 = sub i32 %125, %126
  %128 = load i32, ptr %20, align 4
  %129 = call ptr (ptr, ptr, ptr, ptr, ...) @expert_add_info_format(ptr noundef %123, ptr noundef %124, ptr noundef @ei_ssh_packet_decode, ptr noundef @.str.494, i32 noundef %127, i32 noundef %128)
  br label %130

130:                                              ; preds = %122, %115
  %131 = load i32, ptr %20, align 4
  %132 = add i32 4, %131
  ret i32 %132
}