; Function Attrs: nounwind uwtable
define internal fastcc noundef i32 @ssh_tree_add_hostsignature(ptr noundef %0, ptr noundef %1, i32 noundef %2, ptr noundef %3, i32 noundef %4) unnamed_addr #0 {
  %6 = tail call i32 @tvb_get_ntohl(ptr noundef %0, i32 noundef %2) #21
  %7 = add i32 %2, 4
  %8 = tail call i32 @tvb_get_ntohl(ptr noundef %0, i32 noundef %7) #21
  %9 = add i32 %2, 8
  %10 = tail call ptr @wmem_packet_scope() #21
  %11 = tail call ptr @tvb_get_string_enc(ptr noundef %10, ptr noundef %0, i32 noundef %9, i32 noundef %8, i32 noundef 0) #21
  %12 = tail call ptr @wmem_packet_scope() #21
  %13 = tail call noalias ptr (ptr, ptr, ...) @wmem_strdup_printf(ptr noundef %12, ptr noundef nonnull @.str.419, ptr noundef nonnull @.str.416, ptr noundef %11) #21
  %14 = add i32 %6, 4
  %15 = tail call ptr @proto_tree_add_subtree(ptr noundef %3, ptr noundef %0, i32 noundef %2, i32 noundef %14, i32 noundef %4, ptr noundef null, ptr noundef %13) #21
  %16 = load i32, ptr @hf_ssh_hostsig_length, align 4
  %17 = tail call ptr @proto_tree_add_uint(ptr noundef %15, i32 noundef %16, ptr noundef %0, i32 noundef %2, i32 noundef 4, i32 noundef %6) #21
  %18 = load i32, ptr @hf_ssh_hostsig_type_length, align 4
  %19 = tail call ptr @proto_tree_add_uint(ptr noundef %15, i32 noundef %18, ptr noundef %0, i32 noundef %7, i32 noundef 4, i32 noundef %8) #21
  %20 = load i32, ptr @hf_ssh_hostsig_type, align 4
  %21 = tail call ptr @proto_tree_add_string(ptr noundef %15, i32 noundef %20, ptr noundef %0, i32 noundef %9, i32 noundef %8, ptr noundef %11) #21
  %22 = add i32 %8, %9
  %23 = tail call i32 @strcmp(ptr noundef nonnull dereferenceable(1) %11, ptr noundef nonnull dereferenceable(8) @.str.420) #22
  %24 = icmp eq i32 %23, 0
  br i1 %24, label %25, label %33

25:                                               ; preds = %5
  %26 = load i32, ptr @hf_ssh_hostsig_rsa, align 4
  %27 = tail call i32 @tvb_get_ntohl(ptr noundef %0, i32 noundef %22) #21
  %28 = load i32, ptr @hf_ssh_mpint_length, align 4
  %29 = tail call ptr @proto_tree_add_uint(ptr noundef %15, i32 noundef %28, ptr noundef %0, i32 noundef %22, i32 noundef 4, i32 noundef %27) #21
  %30 = add i32 %22, 4
  %31 = tail call ptr @proto_tree_add_item(ptr noundef %15, i32 noundef %26, ptr noundef %0, i32 noundef %30, i32 noundef %27, i32 noundef 0) #21
  %32 = add i32 %27, 4
  br label %48

33:                                               ; preds = %5
  %34 = tail call i32 @strcmp(ptr noundef nonnull dereferenceable(1) %11, ptr noundef nonnull dereferenceable(8) @.str.421) #22
  %35 = icmp eq i32 %34, 0
  br i1 %35, label %36, label %44

36:                                               ; preds = %33
  %37 = load i32, ptr @hf_ssh_hostsig_dsa, align 4
  %38 = tail call i32 @tvb_get_ntohl(ptr noundef %0, i32 noundef %22) #21
  %39 = load i32, ptr @hf_ssh_mpint_length, align 4
  %40 = tail call ptr @proto_tree_add_uint(ptr noundef %15, i32 noundef %39, ptr noundef %0, i32 noundef %22, i32 noundef 4, i32 noundef %38) #21
  %41 = add i32 %22, 4
  %42 = tail call ptr @proto_tree_add_item(ptr noundef %15, i32 noundef %37, ptr noundef %0, i32 noundef %41, i32 noundef %38, i32 noundef 0) #21
  %43 = add i32 %38, 4
  br label %48

44:                                               ; preds = %33
  %.neg1 = add i32 %6, -4
  %45 = sub i32 %.neg1, %8
  %46 = load i32, ptr @hf_ssh_hostsig_data, align 4
  %47 = tail call ptr @proto_tree_add_item(ptr noundef %15, i32 noundef %46, ptr noundef %0, i32 noundef %22, i32 noundef %45, i32 noundef 0) #21
  br label %48

48:                                               ; preds = %36, %44, %25
  %.pn = phi i32 [ %32, %25 ], [ %43, %36 ], [ %45, %44 ]
  %.0 = add i32 %8, 8
  %49 = add i32 %.0, %.pn
  %.not = icmp eq i32 %49, %14
  br i1 %.not, label %52, label %50

50:                                               ; preds = %48
  %51 = tail call ptr (ptr, ptr, ptr, ptr, ...) @expert_add_info_format(ptr noundef %1, ptr noundef %17, ptr noundef nonnull @ei_ssh_packet_decode, ptr noundef nonnull @.str.494, i32 noundef %49, i32 noundef %6) #21
  br label %52

52:                                               ; preds = %50, %48
  ret i32 %14
}